; Function Attrs: mustprogress nounwind uwtable
define noundef nonnull align 8 dereferenceable(28) ptr @_ZN5arrow13ChunkResolveraSERKS0_(ptr noundef nonnull returned align 8 dereferenceable(28) %0, ptr noundef nonnull align 8 dereferenceable(28) %1) local_unnamed_addr #0 align 2 personality ptr @__gxx_personality_v0 {
  %3 = invoke noundef nonnull align 8 dereferenceable(24) ptr @_ZNSt6vectorIlSaIlEEaSERKS1_(ptr noundef nonnull align 8 dereferenceable(24) %0, ptr noundef nonnull align 8 dereferenceable(24) %1)
          to label %4 unwind label %6

4:                                                ; preds = %2
  %5 = getelementptr inbounds nuw i8, ptr %0, i64 24
  store atomic i32 0, ptr %5 monotonic, align 8
  ret ptr %0

6:                                                ; preds = %2
  %7 = landingpad { ptr, i32 }
          catch ptr null
  %8 = extractvalue { ptr, i32 } %7, 0
  tail call void @__clang_call_terminate(ptr %8) #15
  unreachable
}